; ModuleID = 'source-C-CXX/15/1103.c'
source_filename = "source-C-CXX/15/1103.c"
target datalayout = "e-m:e-p270:32:32-p271:32:32-p272:64:64-i64:64-f80:128-n8:16:32:64-S128"
target triple = "x86_64-pc-linux-gnu"

@.str = private unnamed_addr constant [3 x i8] c"%d\00", align 1
@.str.1 = private unnamed_addr constant [4 x i8] c"%d\0A\00", align 1
@.str.2 = private unnamed_addr constant [5 x i8] c"%d%d\00", align 1
@.str.3 = private unnamed_addr constant [7 x i8] c"%d%d%d\00", align 1
@.str.4 = private unnamed_addr constant [9 x i8] c"%d%d%d%d\00", align 1

; Function Attrs: nofree nounwind sspstrong uwtable
define dso_local i32 @main() local_unnamed_addr #0 {
  %1 = alloca i32, align 4
  %2 = bitcast i32* %1 to i8*
  call void @llvm.lifetime.start.p0i8(i64 4, i8* nonnull %2) #3
  %3 = call i32 (i8*, ...) @__isoc99_scanf(i8* getelementptr inbounds ([3 x i8], [3 x i8]* @.str, i64 0, i64 0), i32* nonnull %1)
  %4 = load i32, i32* %1, align 4, !tbaa !5
  %5 = icmp ult i32 %4, 10
  br i1 %5, label %6, label %9

6:                                                ; preds = %0
  %7 = call i32 (i8*, ...) @printf(i8* nonnull dereferenceable(1) getelementptr inbounds ([4 x i8], [4 x i8]* @.str.1, i64 0, i64 0), i32 %4)
  %8 = load i32, i32* %1, align 4, !tbaa !5
  br label %9

9:                                                ; preds = %6, %0
  %10 = phi i32 [ %8, %6 ], [ %4, %0 ]
  %11 = add i32 %10, -10
  %12 = icmp ult i32 %11, 90
  br i1 %12, label %13, label %21

13:                                               ; preds = %9
  %14 = trunc i32 %10 to i8
  %15 = urem i8 %14, 10
  %16 = zext i8 %15 to i32
  %17 = udiv i8 %14, 10
  %18 = zext i8 %17 to i32
  %19 = call i32 (i8*, ...) @printf(i8* nonnull dereferenceable(1) getelementptr inbounds ([5 x i8], [5 x i8]* @.str.2, i64 0, i64 0), i32 %16, i32 %18)
  %20 = load i32, i32* %1, align 4, !tbaa !5
  br label %21

21:                                               ; preds = %13, %9
  %22 = phi i32 [ %20, %13 ], [ %10, %9 ]
  %23 = add i32 %22, -100
  %24 = icmp ult i32 %23, 900
  br i1 %24, label %25, label %37

25:                                               ; preds = %21
  %26 = trunc i32 %22 to i16
  %27 = urem i16 %26, 10
  %28 = zext i16 %27 to i32
  %29 = udiv i16 %26, 10
  %30 = trunc i16 %29 to i8
  %31 = urem i8 %30, 10
  %32 = zext i8 %31 to i32
  %33 = udiv i16 %26, 100
  %34 = zext i16 %33 to i32
  %35 = call i32 (i8*, ...) @printf(i8* nonnull dereferenceable(1) getelementptr inbounds ([7 x i8], [7 x i8]* @.str.3, i64 0, i64 0), i32 %28, i32 %32, i32 %34)
  %36 = load i32, i32* %1, align 4, !tbaa !5
  br label %37

37:                                               ; preds = %25, %21
  %38 = phi i32 [ %36, %25 ], [ %22, %21 ]
  %39 = add i32 %38, -1000
  %40 = icmp ult i32 %39, 9000
  br i1 %40, label %41, label %61

41:                                               ; preds = %37
  %42 = trunc i32 %38 to i16
  %43 = urem i16 %42, 10
  %44 = zext i16 %43 to i32
  %45 = udiv i16 %42, 10
  %46 = urem i16 %45, 10
  %47 = zext i16 %46 to i32
  %48 = mul nsw i32 %47, -10
  %49 = add nsw i32 %48, %38
  %50 = trunc i32 %49 to i16
  %51 = udiv i16 %50, 100
  %52 = trunc i16 %51 to i8
  %53 = urem i8 %52, 10
  %54 = zext i8 %53 to i32
  %55 = mul nsw i32 %54, -100
  %56 = add nsw i32 %55, %38
  %57 = trunc i32 %56 to i16
  %58 = udiv i16 %57, 1000
  %59 = zext i16 %58 to i32
  %60 = call i32 (i8*, ...) @printf(i8* nonnull dereferenceable(1) getelementptr inbounds ([9 x i8], [9 x i8]* @.str.4, i64 0, i64 0), i32 %44, i32 %47, i32 %54, i32 %59)
  br label %61

61:                                               ; preds = %41, %37
  call void @llvm.lifetime.end.p0i8(i64 4, i8* nonnull %2) #3
  ret i32 0
}

; Function Attrs: argmemonly mustprogress nofree nosync nounwind willreturn
declare void @llvm.lifetime.start.p0i8(i64 immarg, i8* nocapture) #1

; Function Attrs: nofree nounwind
declare noundef i32 @__isoc99_scanf(i8* nocapture noundef readonly, ...) local_unnamed_addr #2

; Function Attrs: nofree nounwind
declare noundef i32 @printf(i8* nocapture noundef readonly, ...) local_unnamed_addr #2

; Function Attrs: argmemonly mustprogress nofree nosync nounwind willreturn
declare void @llvm.lifetime.end.p0i8(i64 immarg, i8* nocapture) #1


!llvm.module.flags = !{!0, !1, !2, !3}
!llvm.ident = !{!4}

!0 = !{i32 1, !"wchar_size", i32 4}
!1 = !{i32 7, !"PIC Level", i32 2}
!2 = !{i32 7, !"PIE Level", i32 2}
!3 = !{i32 7, !"uwtable", i32 1}
!4 = !{!"clang version 13.0.0"}
!5 = !{!6, !6, i64 0}
!6 = !{!"int", !7, i64 0}
!7 = !{!"omnipotent char", !8, i64 0}
!8 = !{!"Simple C/C++ TBAA"}
